target datalayout = "e-m:e-p270:32:32-p271:32:32-p272:64:64-i64:64-i128:128-f80:128-n8:16:32:64-S128"
target triple = "x86_64-pc-linux-gnu"

%"class.cv::bioinspired::BasicRetinaFilter" = type { %"class.cv::bioinspired::TemplateBuffer", %"class.std::valarray", i32, i32, %"class.std::valarray", %"class.std::valarray", %"class.std::valarray", float, float, float, float, float, float, float, float }
%"class.cv::bioinspired::TemplateBuffer" = type { ptr, %"class.std::valarray", i64, i64, i64, i64, i64 }
%"class.std::valarray" = type { i64, ptr }

; Function Attrs: inlinehint mustprogress nounwind uwtable
define linkonce_odr hidden noundef nonnull align 4 dereferenceable(4) ptr @_ZNSt8valarrayIfEixEm(ptr noundef nonnull align 8 dereferenceable(16) %0, i64 noundef %1) #6 comdat align 2 {
  %3 = alloca ptr, align 8
  %4 = alloca i64, align 8
  store ptr %0, ptr %3, align 8, !tbaa !34
  store i64 %1, ptr %4, align 8, !tbaa !25
  %5 = load ptr, ptr %3, align 8
  %6 = getelementptr inbounds nuw %"class.std::valarray", ptr %5, i32 0, i32 1
  %7 = load ptr, ptr %6, align 8, !tbaa !37
  %8 = load i64, ptr %4, align 8, !tbaa !25
  %9 = getelementptr inbounds nuw float, ptr %7, i64 %8
  ret ptr %9
}

; Function Attrs: inlinehint mustprogress nounwind uwtable
define linkonce_odr hidden noundef i32 @_ZN2cv11bioinspired14TemplateBufferIfE12getNBcolumnsEv(ptr noundef nonnull align 8 dereferenceable(64) %0) #6 comdat align 2 {
  %2 = alloca ptr, align 8
  store ptr %0, ptr %2, align 8, !tbaa !23
  %3 = load ptr, ptr %2, align 8
  %4 = getelementptr inbounds nuw %"class.cv::bioinspired::TemplateBuffer", ptr %3, i32 0, i32 3
  %5 = load i64, ptr %4, align 8, !tbaa !30
  %6 = trunc i64 %5 to i32
  ret i32 %6
}

; Function Attrs: mustprogress uwtable
define hidden void @_ZN2cv11bioinspired17BasicRetinaFilter42_horizontalCausalFilter_Irregular_addInputEPKfPfjj(ptr noundef nonnull align 8 dereferenceable(168) %0, ptr noundef %1, ptr noundef %2, i32 noundef %3, i32 noundef %4) #4 align 2 {
  %6 = alloca ptr, align 8
  %7 = alloca ptr, align 8
  %8 = alloca ptr, align 8
  %9 = alloca i32, align 4
  %10 = alloca i32, align 4
  %11 = alloca ptr, align 8
  %12 = alloca ptr, align 8
  %13 = alloca ptr, align 8
  %14 = alloca i32, align 4
  %15 = alloca i32, align 4
  %16 = alloca float, align 4
  %17 = alloca i32, align 4
  store ptr %0, ptr %6, align 8, !tbaa !3
  store ptr %1, ptr %7, align 8, !tbaa !49
  store ptr %2, ptr %8, align 8, !tbaa !49
  store i32 %3, ptr %9, align 4, !tbaa !8
  store i32 %4, ptr %10, align 4, !tbaa !8
  %18 = load ptr, ptr %6, align 8
  call void @llvm.lifetime.start.p0(i64 8, ptr %11) #3
  %19 = load ptr, ptr %8, align 8, !tbaa !49
  %20 = load i32, ptr %9, align 4, !tbaa !8
  %21 = getelementptr inbounds nuw %"class.cv::bioinspired::BasicRetinaFilter", ptr %18, i32 0, i32 0
  %22 = call noundef i32 @_ZN2cv11bioinspired14TemplateBufferIfE12getNBcolumnsEv(ptr noundef nonnull align 8 dereferenceable(64) %21)
  %23 = mul i32 %20, %22
  %24 = zext i32 %23 to i64
  %25 = getelementptr inbounds nuw float, ptr %19, i64 %24
  store ptr %25, ptr %11, align 8, !tbaa !49
  call void @llvm.lifetime.start.p0(i64 8, ptr %12) #3
  %26 = load ptr, ptr %7, align 8, !tbaa !49
  %27 = load i32, ptr %9, align 4, !tbaa !8
  %28 = getelementptr inbounds nuw %"class.cv::bioinspired::BasicRetinaFilter", ptr %18, i32 0, i32 0
  %29 = call noundef i32 @_ZN2cv11bioinspired14TemplateBufferIfE12getNBcolumnsEv(ptr noundef nonnull align 8 dereferenceable(64) %28)
  %30 = mul i32 %27, %29
  %31 = zext i32 %30 to i64
  %32 = getelementptr inbounds nuw float, ptr %26, i64 %31
  store ptr %32, ptr %12, align 8, !tbaa !49
  call void @llvm.lifetime.start.p0(i64 8, ptr %13) #3
  %33 = getelementptr inbounds nuw %"class.cv::bioinspired::BasicRetinaFilter", ptr %18, i32 0, i32 5
  %34 = call noundef nonnull align 4 dereferenceable(4) ptr @_ZNSt8valarrayIfEixEm(ptr noundef nonnull align 8 dereferenceable(16) %33, i64 noundef 0) #3
  %35 = load i32, ptr %9, align 4, !tbaa !8
  %36 = getelementptr inbounds nuw %"class.cv::bioinspired::BasicRetinaFilter", ptr %18, i32 0, i32 0
  %37 = call noundef i32 @_ZN2cv11bioinspired14TemplateBufferIfE12getNBcolumnsEv(ptr noundef nonnull align 8 dereferenceable(64) %36)
  %38 = mul i32 %35, %37
  %39 = zext i32 %38 to i64
  %40 = getelementptr inbounds nuw float, ptr %34, i64 %39
  store ptr %40, ptr %13, align 8, !tbaa !49
  call void @llvm.lifetime.start.p0(i64 4, ptr %14) #3
  %41 = load i32, ptr %9, align 4, !tbaa !8
  store i32 %41, ptr %14, align 4, !tbaa !8
  br label %42

42:                                               ; preds = %75, %5
  %43 = load i32, ptr %14, align 4, !tbaa !8
  %44 = load i32, ptr %10, align 4, !tbaa !8
  %45 = icmp ult i32 %43, %44
  br i1 %45, label %47, label %46

46:                                               ; preds = %42
  store i32 2, ptr %15, align 4
  call void @llvm.lifetime.end.p0(i64 4, ptr %14) #3
  br label %78

47:                                               ; preds = %42
  call void @llvm.lifetime.start.p0(i64 4, ptr %16) #3
  store float 0.000000e+00, ptr %16, align 4, !tbaa !26
  call void @llvm.lifetime.start.p0(i64 4, ptr %17) #3
  store i32 0, ptr %17, align 4, !tbaa !8
  br label %48

48:                                               ; preds = %71, %47
  %49 = load i32, ptr %17, align 4, !tbaa !8
  %50 = getelementptr inbounds nuw %"class.cv::bioinspired::BasicRetinaFilter", ptr %18, i32 0, i32 0
  %51 = call noundef i32 @_ZN2cv11bioinspired14TemplateBufferIfE12getNBcolumnsEv(ptr noundef nonnull align 8 dereferenceable(64) %50)
  %52 = icmp ult i32 %49, %51
  br i1 %52, label %54, label %53

53:                                               ; preds = %48
  store i32 5, ptr %15, align 4
  call void @llvm.lifetime.end.p0(i64 4, ptr %17) #3
  br label %74

54:                                               ; preds = %48
  %55 = load ptr, ptr %12, align 8, !tbaa !49
  %56 = getelementptr inbounds nuw float, ptr %55, i32 1
  store ptr %56, ptr %12, align 8, !tbaa !49
  %57 = load float, ptr %55, align 4, !tbaa !26
  %58 = getelementptr inbounds nuw %"class.cv::bioinspired::BasicRetinaFilter", ptr %18, i32 0, i32 13
  %59 = load float, ptr %58, align 8, !tbaa !54
  %60 = load ptr, ptr %11, align 8, !tbaa !49
  %61 = load float, ptr %60, align 4, !tbaa !26
  %62 = call float @llvm.fmuladd.f32(float %59, float %61, float %57)
  %63 = load ptr, ptr %13, align 8, !tbaa !49
  %64 = getelementptr inbounds nuw float, ptr %63, i32 1
  store ptr %64, ptr %13, align 8, !tbaa !49
  %65 = load float, ptr %63, align 4, !tbaa !26
  %66 = load float, ptr %16, align 4, !tbaa !26
  %67 = call float @llvm.fmuladd.f32(float %65, float %66, float %62)
  store float %67, ptr %16, align 4, !tbaa !26
  %68 = load float, ptr %16, align 4, !tbaa !26
  %69 = load ptr, ptr %11, align 8, !tbaa !49
  %70 = getelementptr inbounds nuw float, ptr %69, i32 1
  store ptr %70, ptr %11, align 8, !tbaa !49
  store float %68, ptr %69, align 4, !tbaa !26
  br label %71

71:                                               ; preds = %54
  %72 = load i32, ptr %17, align 4, !tbaa !8
  %73 = add i32 %72, 1
  store i32 %73, ptr %17, align 4, !tbaa !8
  br label %48, !llvm.loop !127

74:                                               ; preds = %53
  call void @llvm.lifetime.end.p0(i64 4, ptr %16) #3
  br label %75

75:                                               ; preds = %74
  %76 = load i32, ptr %14, align 4, !tbaa !8
  %77 = add i32 %76, 1
  store i32 %77, ptr %14, align 4, !tbaa !8
  br label %42, !llvm.loop !128

78:                                               ; preds = %46
  call void @llvm.lifetime.end.p0(i64 8, ptr %13) #3
  call void @llvm.lifetime.end.p0(i64 8, ptr %12) #3
  call void @llvm.lifetime.end.p0(i64 8, ptr %11) #3
  ret void
}