; Function Attrs: mustprogress nofree norecurse nosync nounwind memory(read, argmem: readwrite, inaccessiblemem: none) uwtable
define hidden void @_ZN2cv11bioinspired17BasicRetinaFilter42_horizontalCausalFilter_Irregular_addInputEPKfPfjj(ptr noundef nonnull readonly align 8 captures(none) dereferenceable(168) %0, ptr noundef readonly captures(none) %1, ptr noundef captures(none) %2, i32 noundef %3, i32 noundef %4) local_unnamed_addr #10 align 2 {
  %6 = getelementptr inbounds nuw i8, ptr %0, i64 32
  %7 = load i64, ptr %6, align 8, !tbaa !17
  %8 = trunc i64 %7 to i32
  %9 = icmp ult i32 %3, %4
  br i1 %9, label %.preheader.lr.ph, label %._crit_edge35

.preheader.lr.ph:                                 ; preds = %5
  %.not = icmp eq i32 %8, 0
  %10 = getelementptr inbounds nuw i8, ptr %0, i64 160
  br i1 %.not, label %._crit_edge35, label %.preheader.us.preheader

.preheader.us.preheader:                          ; preds = %.preheader.lr.ph
  %11 = mul i32 %3, %8
  %12 = zext i32 %11 to i64
  %13 = getelementptr inbounds nuw float, ptr %2, i64 %12
  %14 = getelementptr inbounds nuw float, ptr %1, i64 %12
  %15 = getelementptr inbounds nuw i8, ptr %0, i64 112
  %16 = load ptr, ptr %15, align 8, !tbaa !10
  %17 = getelementptr inbounds nuw float, ptr %16, i64 %12
  br label %.preheader.us

.preheader.us:                                    ; preds = %.preheader.us.preheader, %._crit_edge.us
  %.01834.us = phi i32 [ %29, %._crit_edge.us ], [ %3, %.preheader.us.preheader ]
  %.01933.us = phi ptr [ %24, %._crit_edge.us ], [ %17, %.preheader.us.preheader ]
  %.02032.us = phi ptr [ %19, %._crit_edge.us ], [ %14, %.preheader.us.preheader ]
  %.02231.us = phi ptr [ %27, %._crit_edge.us ], [ %13, %.preheader.us.preheader ]
  br label %18

18:                                               ; preds = %.preheader.us, %18
  %.028.us = phi i32 [ 0, %.preheader.us ], [ %28, %18 ]
  %.01727.us = phi float [ 0.000000e+00, %.preheader.us ], [ %26, %18 ]
  %.126.us = phi ptr [ %.01933.us, %.preheader.us ], [ %24, %18 ]
  %.12125.us = phi ptr [ %.02032.us, %.preheader.us ], [ %19, %18 ]
  %.12324.us = phi ptr [ %.02231.us, %.preheader.us ], [ %27, %18 ]
  %19 = getelementptr inbounds nuw i8, ptr %.12125.us, i64 4
  %20 = load float, ptr %.12125.us, align 4, !tbaa !11
  %21 = load float, ptr %10, align 8, !tbaa !84
  %22 = load float, ptr %.12324.us, align 4, !tbaa !11
  %23 = tail call float @llvm.fmuladd.f32(float %21, float %22, float %20)
  %24 = getelementptr inbounds nuw i8, ptr %.126.us, i64 4
  %25 = load float, ptr %.126.us, align 4, !tbaa !11
  %26 = tail call float @llvm.fmuladd.f32(float %25, float %.01727.us, float %23)
  %27 = getelementptr inbounds nuw i8, ptr %.12324.us, i64 4
  store float %26, ptr %.12324.us, align 4, !tbaa !11
  %28 = add nuw i32 %.028.us, 1
  %exitcond.not = icmp eq i32 %28, %8
  br i1 %exitcond.not, label %._crit_edge.us, label %18, !llvm.loop !141

._crit_edge.us:                                   ; preds = %18
  %29 = add nuw i32 %.01834.us, 1
  %exitcond39.not = icmp eq i32 %29, %4
  br i1 %exitcond39.not, label %._crit_edge35, label %.preheader.us, !llvm.loop !142

._crit_edge35:                                    ; preds = %._crit_edge.us, %.preheader.lr.ph, %5
  ret void
}